target datalayout = "e-m:e-p270:32:32-p271:32:32-p272:64:64-i64:64-i128:128-f80:128-n8:16:32:64-S128"
target triple = "x86_64-pc-linux-gnu"

%union.pthread_cond_t = type { %struct.__pthread_cond_s }
%struct.__pthread_cond_s = type { %union.__atomic_wide_counter, %union.__atomic_wide_counter, [2 x i32], [2 x i32], i32, i32, [2 x i32] }
%union.__atomic_wide_counter = type { i64 }
%union.pthread_mutex_t = type { %struct.__pthread_mutex_s }
%struct.__pthread_mutex_s = type { i32, i32, i32, i32, i32, i16, i16, %struct.__pthread_internal_list }
%struct.__pthread_internal_list = type { ptr, ptr }
%struct.step_complete_t = type { %union.pthread_cond_t, %union.pthread_mutex_t, i32, i32, i32, ptr, i32, i32, i8, ptr, i32, ptr }
%struct.timespec = type { i64, i64 }

@.str.9 = private unnamed_addr constant [29 x i8] c"%s: pthread_mutex_lock(): %m\00", align 1
@__func__.stepd_wait_for_children_slurmstepd = private unnamed_addr constant [35 x i8] c"stepd_wait_for_children_slurmstepd\00", align 1
@.str.10 = private unnamed_addr constant [40 x i8] c"Rank %d waiting for %d (of %d) children\00", align 1
@.str.11 = private unnamed_addr constant [50 x i8] c"Rank %d timed out waiting for %d (of %d) children\00", align 1
@.str.12 = private unnamed_addr constant [37 x i8] c"Rank %d got all children completions\00", align 1
@.str.13 = private unnamed_addr constant [35 x i8] c"Rank %d has no children slurmstepd\00", align 1
@.str.14 = private unnamed_addr constant [31 x i8] c"%s: pthread_mutex_unlock(): %m\00", align 1

; Function Attrs: nounwind uwtable
define dso_local void @stepd_wait_for_children_slurmstepd(ptr noundef %0) #0 {
  %2 = alloca ptr, align 8
  %3 = alloca i32, align 4
  %4 = alloca i32, align 4
  %5 = alloca %struct.timespec, align 8
  %6 = alloca i32, align 4
  %7 = alloca i32, align 4
  store ptr %0, ptr %2, align 8
  call void @llvm.lifetime.start.p0(i64 4, ptr %3) #12
  store i32 0, ptr %3, align 4
  call void @llvm.lifetime.start.p0(i64 4, ptr %4) #12
  call void @llvm.lifetime.start.p0(i64 16, ptr %5) #12
  call void @llvm.memset.p0.i64(ptr align 8 %5, i8 0, i64 16, i1 false)
  br label %8

8:                                                ; preds = %1
  call void @llvm.lifetime.start.p0(i64 4, ptr %6) #12
  %9 = call i32 @pthread_mutex_lock(ptr noundef getelementptr inbounds nuw (%struct.step_complete_t, ptr @step_complete, i32 0, i32 1)) #12
  store i32 %9, ptr %6, align 4
  %10 = load i32, ptr %6, align 4
  %11 = icmp ne i32 %10, 0
  br i1 %11, label %12, label %15

12:                                               ; preds = %8
  %13 = load i32, ptr %6, align 4
  %14 = call ptr @__errno_location() #13
  store i32 %13, ptr %14, align 4
  call void (ptr, ...) @fatal_abort(ptr noundef @.str.9, ptr noundef @__func__.stepd_wait_for_children_slurmstepd) #14
  unreachable

15:                                               ; preds = %8
  call void @llvm.lifetime.end.p0(i64 4, ptr %6) #12
  br label %16

16:                                               ; preds = %15
  br label %17

17:                                               ; preds = %16
  %18 = load ptr, ptr getelementptr inbounds nuw (%struct.step_complete_t, ptr @step_complete, i32 0, i32 9), align 8
  %19 = icmp ne ptr %18, null
  br i1 %19, label %20, label %89

20:                                               ; preds = %17
  %21 = load i32, ptr getelementptr inbounds nuw (%struct.step_complete_t, ptr @step_complete, i32 0, i32 6), align 8
  %22 = icmp sgt i32 %21, 0
  br i1 %22, label %23, label %89

23:                                               ; preds = %20
  %24 = load i32, ptr getelementptr inbounds nuw (%struct.step_complete_t, ptr @step_complete, i32 0, i32 7), align 4
  %25 = load i32, ptr getelementptr inbounds nuw (%struct.step_complete_t, ptr @step_complete, i32 0, i32 3), align 4
  %26 = sub nsw i32 %24, %25
  %27 = mul nsw i32 3, %26
  %28 = sext i32 %27 to i64
  %29 = getelementptr inbounds nuw %struct.timespec, ptr %5, i32 0, i32 0
  %30 = load i64, ptr %29, align 8
  %31 = add nsw i64 %30, %28
  store i64 %31, ptr %29, align 8
  %32 = call i64 @time(ptr noundef null) #12
  %33 = add nsw i64 %32, 60
  %34 = getelementptr inbounds nuw %struct.timespec, ptr %5, i32 0, i32 0
  %35 = load i64, ptr %34, align 8
  %36 = add nsw i64 %35, %33
  store i64 %36, ptr %34, align 8
  br label %37

37:                                               ; preds = %72, %23
  %38 = load ptr, ptr getelementptr inbounds nuw (%struct.step_complete_t, ptr @step_complete, i32 0, i32 9), align 8
  %39 = call i32 @bit_clear_count(ptr noundef %38)
  store i32 %39, ptr %3, align 4
  %40 = icmp sgt i32 %39, 0
  br i1 %40, label %41, label %73

41:                                               ; preds = %37
  br label %42

42:                                               ; preds = %41
  br label %43

43:                                               ; preds = %42
  %44 = call i32 @get_log_level()
  %45 = icmp sge i32 %44, 7
  br i1 %45, label %46, label %50

46:                                               ; preds = %43
  %47 = load i32, ptr getelementptr inbounds nuw (%struct.step_complete_t, ptr @step_complete, i32 0, i32 2), align 8
  %48 = load i32, ptr %3, align 4
  %49 = load i32, ptr getelementptr inbounds nuw (%struct.step_complete_t, ptr @step_complete, i32 0, i32 6), align 8
  call void (i32, ptr, ...) @log_var(i32 noundef 7, ptr noundef @.str.10, i32 noundef %47, i32 noundef %48, i32 noundef %49)
  br label %50

50:                                               ; preds = %46, %43
  br label %51

51:                                               ; preds = %50
  br label %52

52:                                               ; preds = %51
  br label %53

53:                                               ; preds = %52
  br label %54

54:                                               ; preds = %53
  %55 = call i32 @pthread_cond_timedwait(ptr noundef @step_complete, ptr noundef getelementptr inbounds nuw (%struct.step_complete_t, ptr @step_complete, i32 0, i32 1), ptr noundef %5)
  store i32 %55, ptr %4, align 4
  %56 = load i32, ptr %4, align 4
  %57 = icmp eq i32 %56, 110
  br i1 %57, label %58, label %72

58:                                               ; preds = %54
  br label %59

59:                                               ; preds = %58
  br label %60

60:                                               ; preds = %59
  %61 = call i32 @get_log_level()
  %62 = icmp sge i32 %61, 6
  br i1 %62, label %63, label %67

63:                                               ; preds = %60
  %64 = load i32, ptr getelementptr inbounds nuw (%struct.step_complete_t, ptr @step_complete, i32 0, i32 2), align 8
  %65 = load i32, ptr %3, align 4
  %66 = load i32, ptr getelementptr inbounds nuw (%struct.step_complete_t, ptr @step_complete, i32 0, i32 6), align 8
  call void (i32, ptr, ...) @log_var(i32 noundef 6, ptr noundef @.str.11, i32 noundef %64, i32 noundef %65, i32 noundef %66)
  br label %67

67:                                               ; preds = %63, %60
  br label %68

68:                                               ; preds = %67
  br label %69

69:                                               ; preds = %68
  br label %70

70:                                               ; preds = %69
  br label %71

71:                                               ; preds = %70
  br label %73

72:                                               ; preds = %54
  br label %37, !llvm.loop !14

73:                                               ; preds = %71, %37
  %74 = load i32, ptr %3, align 4
  %75 = icmp eq i32 %74, 0
  br i1 %75, label %76, label %88

76:                                               ; preds = %73
  br label %77

77:                                               ; preds = %76
  br label %78

78:                                               ; preds = %77
  %79 = call i32 @get_log_level()
  %80 = icmp sge i32 %79, 6
  br i1 %80, label %81, label %83

81:                                               ; preds = %78
  %82 = load i32, ptr getelementptr inbounds nuw (%struct.step_complete_t, ptr @step_complete, i32 0, i32 2), align 8
  call void (i32, ptr, ...) @log_var(i32 noundef 6, ptr noundef @.str.12, i32 noundef %82)
  br label %83

83:                                               ; preds = %81, %78
  br label %84

84:                                               ; preds = %83
  br label %85

85:                                               ; preds = %84
  br label %86

86:                                               ; preds = %85
  br label %87

87:                                               ; preds = %86
  br label %88

88:                                               ; preds = %87, %73
  br label %101

89:                                               ; preds = %20, %17
  br label %90

90:                                               ; preds = %89
  br label %91

91:                                               ; preds = %90
  %92 = call i32 @get_log_level()
  %93 = icmp sge i32 %92, 6
  br i1 %93, label %94, label %96

94:                                               ; preds = %91
  %95 = load i32, ptr getelementptr inbounds nuw (%struct.step_complete_t, ptr @step_complete, i32 0, i32 2), align 8
  call void (i32, ptr, ...) @log_var(i32 noundef 6, ptr noundef @.str.13, i32 noundef %95)
  br label %96

96:                                               ; preds = %94, %91
  br label %97

97:                                               ; preds = %96
  br label %98

98:                                               ; preds = %97
  br label %99

99:                                               ; preds = %98
  br label %100

100:                                              ; preds = %99
  br label %101

101:                                              ; preds = %100, %88
  %102 = load ptr, ptr %2, align 8
  %103 = call i32 @_get_exit_code(ptr noundef %102)
  store i32 %103, ptr getelementptr inbounds nuw (%struct.step_complete_t, ptr @step_complete, i32 0, i32 10), align 8
  store i8 0, ptr getelementptr inbounds nuw (%struct.step_complete_t, ptr @step_complete, i32 0, i32 8), align 8
  br label %104

104:                                              ; preds = %101
  call void @llvm.lifetime.start.p0(i64 4, ptr %7) #12
  %105 = call i32 @pthread_mutex_unlock(ptr noundef getelementptr inbounds nuw (%struct.step_complete_t, ptr @step_complete, i32 0, i32 1)) #12
  store i32 %105, ptr %7, align 4
  %106 = load i32, ptr %7, align 4
  %107 = icmp ne i32 %106, 0
  br i1 %107, label %108, label %111

108:                                              ; preds = %104
  %109 = load i32, ptr %7, align 4
  %110 = call ptr @__errno_location() #13
  store i32 %109, ptr %110, align 4
  call void (ptr, ...) @fatal_abort(ptr noundef @.str.14, ptr noundef @__func__.stepd_wait_for_children_slurmstepd) #14
  unreachable

111:                                              ; preds = %104
  call void @llvm.lifetime.end.p0(i64 4, ptr %7) #12
  br label %112

112:                                              ; preds = %111
  br label %113

113:                                              ; preds = %112
  call void @llvm.lifetime.end.p0(i64 16, ptr %5) #12
  call void @llvm.lifetime.end.p0(i64 4, ptr %4) #12
  call void @llvm.lifetime.end.p0(i64 4, ptr %3) #12
  ret void
}