; Function Attrs: nounwind uwtable
define dso_local void @stepd_wait_for_children_slurmstepd(ptr noundef readonly captures(none) %0) local_unnamed_addr #0 {
  %2 = alloca %struct.timespec, align 8
  call void @llvm.lifetime.start.p0(i64 16, ptr nonnull %2) #17
  call void @llvm.memset.p0.i64(ptr noundef nonnull align 8 dereferenceable(16) %2, i8 0, i64 16, i1 false)
  %3 = tail call i32 @pthread_mutex_lock(ptr noundef nonnull getelementptr inbounds nuw (i8, ptr @step_complete, i64 48)) #17
  %.not = icmp eq i32 %3, 0
  br i1 %.not, label %6, label %4

4:                                                ; preds = %1
  %5 = tail call ptr @__errno_location() #18
  store i32 %3, ptr %5, align 4
  tail call void (ptr, ...) @fatal_abort(ptr noundef nonnull @.str.9, ptr noundef nonnull @__func__.stepd_wait_for_children_slurmstepd) #19
  unreachable

6:                                                ; preds = %1
  %7 = load ptr, ptr getelementptr inbounds nuw (i8, ptr @step_complete, i64 128), align 8
  %8 = icmp ne ptr %7, null
  %9 = load i32, ptr getelementptr inbounds nuw (i8, ptr @step_complete, i64 112), align 8
  %10 = icmp sgt i32 %9, 0
  %or.cond = select i1 %8, i1 %10, i1 false
  br i1 %or.cond, label %11, label %46

11:                                               ; preds = %6
  %12 = load i32, ptr getelementptr inbounds nuw (i8, ptr @step_complete, i64 116), align 4
  %13 = load i32, ptr getelementptr inbounds nuw (i8, ptr @step_complete, i64 92), align 4
  %14 = sub nsw i32 %12, %13
  %15 = mul nsw i32 %14, 3
  %16 = sext i32 %15 to i64
  %17 = tail call i64 @time(ptr noundef null) #17
  %18 = add nsw i64 %17, 60
  %19 = add nsw i64 %18, %16
  store i64 %19, ptr %2, align 8
  br label %20

20:                                               ; preds = %30, %11
  %21 = load ptr, ptr getelementptr inbounds nuw (i8, ptr @step_complete, i64 128), align 8
  %22 = call i32 @bit_clear_count(ptr noundef %21) #17
  %23 = icmp sgt i32 %22, 0
  br i1 %23, label %24, label %39

24:                                               ; preds = %20
  %25 = call i32 @get_log_level() #17
  %26 = icmp sgt i32 %25, 6
  br i1 %26, label %27, label %30

27:                                               ; preds = %24
  %28 = load i32, ptr getelementptr inbounds nuw (i8, ptr @step_complete, i64 88), align 8
  %29 = load i32, ptr getelementptr inbounds nuw (i8, ptr @step_complete, i64 112), align 8
  call void (i32, ptr, ...) @log_var(i32 noundef 7, ptr noundef nonnull @.str.10, i32 noundef %28, i32 noundef %22, i32 noundef %29) #17
  br label %30

30:                                               ; preds = %27, %24
  %31 = call i32 @pthread_cond_timedwait(ptr noundef nonnull @step_complete, ptr noundef nonnull getelementptr inbounds nuw (i8, ptr @step_complete, i64 48), ptr noundef nonnull %2) #17
  %32 = icmp eq i32 %31, 110
  br i1 %32, label %33, label %20, !llvm.loop !14

33:                                               ; preds = %30
  %34 = call i32 @get_log_level() #17
  %35 = icmp sgt i32 %34, 5
  br i1 %35, label %36, label %.thread

36:                                               ; preds = %33
  %37 = load i32, ptr getelementptr inbounds nuw (i8, ptr @step_complete, i64 88), align 8
  %38 = load i32, ptr getelementptr inbounds nuw (i8, ptr @step_complete, i64 112), align 8
  call void (i32, ptr, ...) @log_var(i32 noundef 6, ptr noundef nonnull @.str.11, i32 noundef %37, i32 noundef %22, i32 noundef %38) #17
  br label %.thread

39:                                               ; preds = %20
  %40 = icmp eq i32 %22, 0
  br i1 %40, label %41, label %.thread

41:                                               ; preds = %39
  %42 = call i32 @get_log_level() #17
  %43 = icmp sgt i32 %42, 5
  br i1 %43, label %44, label %.thread

44:                                               ; preds = %41
  %45 = load i32, ptr getelementptr inbounds nuw (i8, ptr @step_complete, i64 88), align 8
  call void (i32, ptr, ...) @log_var(i32 noundef 6, ptr noundef nonnull @.str.12, i32 noundef %45) #17
  br label %.thread

46:                                               ; preds = %6
  %47 = tail call i32 @get_log_level() #17
  %48 = icmp sgt i32 %47, 5
  br i1 %48, label %49, label %.thread

49:                                               ; preds = %46
  %50 = load i32, ptr getelementptr inbounds nuw (i8, ptr @step_complete, i64 88), align 8
  tail call void (i32, ptr, ...) @log_var(i32 noundef 6, ptr noundef nonnull @.str.13, i32 noundef %50) #17
  br label %.thread

.thread:                                          ; preds = %36, %33, %46, %49, %39, %44, %41
  %51 = call fastcc i32 @_get_exit_code(ptr noundef %0)
  store i32 %51, ptr getelementptr inbounds nuw (i8, ptr @step_complete, i64 136), align 8
  store i8 0, ptr getelementptr inbounds nuw (i8, ptr @step_complete, i64 120), align 8
  %52 = call i32 @pthread_mutex_unlock(ptr noundef nonnull getelementptr inbounds nuw (i8, ptr @step_complete, i64 48)) #17
  %.not11 = icmp eq i32 %52, 0
  br i1 %.not11, label %55, label %53

53:                                               ; preds = %.thread
  %54 = tail call ptr @__errno_location() #18
  store i32 %52, ptr %54, align 4
  call void (ptr, ...) @fatal_abort(ptr noundef nonnull @.str.14, ptr noundef nonnull @__func__.stepd_wait_for_children_slurmstepd) #19
  unreachable

55:                                               ; preds = %.thread
  call void @llvm.lifetime.end.p0(i64 16, ptr nonnull %2) #17
  ret void
}